target datalayout = "e-m:e-p270:32:32-p271:32:32-p272:64:64-i64:64-i128:128-f80:128-n8:16:32:64-S128"
target triple = "x86_64-pc-linux-gnu"

%struct.PJ_XY = type { double, double }
%struct.PJ_LP = type { double, double }
%union.PJ_COORD = type { [4 x double] }
%struct.PJ_XYZ = type { double, double, double }
%struct.PJ_LPZ = type { double, double, double }
%struct.PJconsts = type { ptr, ptr, ptr, ptr, ptr, ptr, ptr, ptr, ptr, ptr, ptr, ptr, i32, ptr, ptr, ptr, ptr, ptr, ptr, ptr, ptr, double, double, double, double, double, double, double, double, double, double, double, double, double, double, double, double, double, double, double, double, double, double, i32, i32, i32, i32, i32, i32, i32, i32, i32, i32, i32, ptr, ptr, ptr, ptr, ptr, ptr, double, double, double, double, double, double, double, double, double, double, double, i32, [7 x double], i32, ptr, ptr, double, double, i32, [4 x i8], %"class.std::shared_ptr", i8, double, i8, %"class.std::__cxx11::basic_string", %"class.std::__cxx11::basic_string", %"class.std::__cxx11::basic_string", i8, %"class.std::vector", i32, %"class.std::vector.3", i32, i8, i8, i8, ptr }
%"class.std::shared_ptr" = type { %"class.std::__shared_ptr" }
%"class.std::__shared_ptr" = type { ptr, %"class.std::__shared_count" }
%"class.std::__shared_count" = type { ptr }
%"class.std::__cxx11::basic_string" = type { %"struct.std::__cxx11::basic_string<char>::_Alloc_hider", i64, %union.anon }
%"struct.std::__cxx11::basic_string<char>::_Alloc_hider" = type { ptr }
%union.anon = type { i64, [8 x i8] }
%"class.std::vector" = type { %"struct.std::_Vector_base" }
%"struct.std::_Vector_base" = type { %"struct.std::_Vector_base<osgeo::proj::operation::GridDescription, std::allocator<osgeo::proj::operation::GridDescription>>::_Vector_impl" }
%"struct.std::_Vector_base<osgeo::proj::operation::GridDescription, std::allocator<osgeo::proj::operation::GridDescription>>::_Vector_impl" = type { %"struct.std::_Vector_base<osgeo::proj::operation::GridDescription, std::allocator<osgeo::proj::operation::GridDescription>>::_Vector_impl_data" }
%"struct.std::_Vector_base<osgeo::proj::operation::GridDescription, std::allocator<osgeo::proj::operation::GridDescription>>::_Vector_impl_data" = type { ptr, ptr, ptr }
%"class.std::vector.3" = type { %"struct.std::_Vector_base.4" }
%"struct.std::_Vector_base.4" = type { %"struct.std::_Vector_base<PJCoordOperation, std::allocator<PJCoordOperation>>::_Vector_impl" }
%"struct.std::_Vector_base<PJCoordOperation, std::allocator<PJCoordOperation>>::_Vector_impl" = type { %"struct.std::_Vector_base<PJCoordOperation, std::allocator<PJCoordOperation>>::_Vector_impl_data" }
%"struct.std::_Vector_base<PJCoordOperation, std::allocator<PJCoordOperation>>::_Vector_impl_data" = type { ptr, ptr, ptr }
%struct.pj_ctx = type <{ %"class.std::__cxx11::basic_string", i32, i32, i8, i8, [6 x i8], ptr, ptr, ptr, i32, i8, [3 x i8], i32, [4 x i8], %"class.std::__cxx11::basic_string", %"class.std::vector.8", ptr, ptr, ptr, %"class.std::map", i8, [7 x i8], %struct.projFileApiCallbackAndData, %"class.std::__cxx11::basic_string", %"class.std::__cxx11::basic_string", i8, [7 x i8], %"class.std::__cxx11::basic_string", %struct.projNetworkCallbacksAndData, %"class.std::__cxx11::basic_string", i8, [7 x i8], %struct.projGridChunkCache, i32, i32, i32, [4 x i8] }>
%"class.std::vector.8" = type { %"struct.std::_Vector_base.9" }
%"struct.std::_Vector_base.9" = type { %"struct.std::_Vector_base<std::__cxx11::basic_string<char>, std::allocator<std::__cxx11::basic_string<char>>>::_Vector_impl" }
%"struct.std::_Vector_base<std::__cxx11::basic_string<char>, std::allocator<std::__cxx11::basic_string<char>>>::_Vector_impl" = type { %"struct.std::_Vector_base<std::__cxx11::basic_string<char>, std::allocator<std::__cxx11::basic_string<char>>>::_Vector_impl_data" }
%"struct.std::_Vector_base<std::__cxx11::basic_string<char>, std::allocator<std::__cxx11::basic_string<char>>>::_Vector_impl_data" = type { ptr, ptr, ptr }
%"class.std::map" = type { %"class.std::_Rb_tree" }
%"class.std::_Rb_tree" = type { %"struct.std::_Rb_tree<std::__cxx11::basic_string<char>, std::pair<const std::__cxx11::basic_string<char>, std::__cxx11::basic_string<char>>, std::_Select1st<std::pair<const std::__cxx11::basic_string<char>, std::__cxx11::basic_string<char>>>, std::less<std::__cxx11::basic_string<char>>>::_Rb_tree_impl" }
%"struct.std::_Rb_tree<std::__cxx11::basic_string<char>, std::pair<const std::__cxx11::basic_string<char>, std::__cxx11::basic_string<char>>, std::_Select1st<std::pair<const std::__cxx11::basic_string<char>, std::__cxx11::basic_string<char>>>, std::less<std::__cxx11::basic_string<char>>>::_Rb_tree_impl" = type { [8 x i8], %"struct.std::_Rb_tree_header" }
%"struct.std::_Rb_tree_header" = type { %"struct.std::_Rb_tree_node_base", i64 }
%"struct.std::_Rb_tree_node_base" = type { i32, ptr, ptr, ptr }
%struct.projFileApiCallbackAndData = type { ptr, ptr, ptr, ptr, ptr, ptr, ptr, ptr, ptr, ptr, ptr }
%struct.projNetworkCallbacksAndData = type { i8, ptr, ptr, ptr, ptr, ptr }
%struct.projGridChunkCache = type <{ i8, [7 x i8], %"class.std::__cxx11::basic_string", i64, i32, [4 x i8] }>

; Function Attrs: mustprogress uwtable
define hidden noundef zeroext i1 @_Z8pj_fwd4dR8PJ_COORDP8PJconsts(ptr noundef nonnull align 8 dereferenceable(32) %0, ptr noundef %1) #0 {
  %3 = alloca i1, align 1
  %4 = alloca ptr, align 8
  %5 = alloca ptr, align 8
  %6 = alloca i32, align 4
  %7 = alloca %union.PJ_COORD, align 8
  %8 = alloca i32, align 4
  %9 = alloca %struct.PJ_XYZ, align 8
  %10 = alloca %struct.PJ_LPZ, align 8
  %11 = alloca %struct.PJ_XY, align 8
  %12 = alloca %struct.PJ_LP, align 8
  %13 = alloca %union.PJ_COORD, align 8
  %14 = alloca %union.PJ_COORD, align 8
  %15 = alloca %union.PJ_COORD, align 8
  store ptr %0, ptr %4, align 8, !tbaa !72
  store ptr %1, ptr %5, align 8, !tbaa !3
  call void @llvm.lifetime.start.p0(i64 4, ptr %6) #6
  %16 = load ptr, ptr %5, align 8, !tbaa !3
  %17 = getelementptr inbounds nuw %struct.PJconsts, ptr %16, i32 0, i32 0
  %18 = load ptr, ptr %17, align 8, !tbaa !11
  %19 = getelementptr inbounds nuw %struct.pj_ctx, ptr %18, i32 0, i32 1
  %20 = load i32, ptr %19, align 8, !tbaa !39
  store i32 %20, ptr %6, align 4, !tbaa !63
  %21 = load ptr, ptr %5, align 8, !tbaa !3
  %22 = getelementptr inbounds nuw %struct.PJconsts, ptr %21, i32 0, i32 0
  %23 = load ptr, ptr %22, align 8, !tbaa !11
  %24 = getelementptr inbounds nuw %struct.pj_ctx, ptr %23, i32 0, i32 1
  store i32 0, ptr %24, align 8, !tbaa !39
  %25 = load ptr, ptr %5, align 8, !tbaa !3
  %26 = getelementptr inbounds nuw %struct.PJconsts, ptr %25, i32 0, i32 48
  %27 = load i32, ptr %26, align 4, !tbaa !64
  %28 = icmp ne i32 %27, 0
  br i1 %28, label %32, label %29

29:                                               ; preds = %2
  %30 = load ptr, ptr %5, align 8, !tbaa !3
  %31 = load ptr, ptr %4, align 8, !tbaa !72
  call void @_ZL11fwd_prepareP8PJconstsR8PJ_COORD(ptr noundef %30, ptr noundef nonnull align 8 dereferenceable(32) %31)
  br label %32

32:                                               ; preds = %29, %2
  %33 = load ptr, ptr %4, align 8, !tbaa !72
  %34 = getelementptr inbounds [4 x double], ptr %33, i64 0, i64 0
  %35 = load double, ptr %34, align 8, !tbaa !65
  %36 = fcmp oeq double 0x7FF0000000000000, %35
  br i1 %36, label %37, label %39

37:                                               ; preds = %32
  call void @llvm.lifetime.start.p0(i64 32, ptr %7) #6
  call void @_Z16proj_coord_errorv(ptr dead_on_unwind writable sret(%union.PJ_COORD) align 8 %7)
  %38 = load ptr, ptr %4, align 8, !tbaa !72
  call void @llvm.memcpy.p0.p0.i64(ptr align 8 %38, ptr align 8 %7, i64 32, i1 false), !tbaa.struct !71
  call void @llvm.lifetime.end.p0(i64 32, ptr %7) #6
  store i1 false, ptr %3, align 1
  store i32 1, ptr %8, align 4
  br label %119

39:                                               ; preds = %32
  %40 = load ptr, ptr %5, align 8, !tbaa !3
  %41 = getelementptr inbounds nuw %struct.PJconsts, ptr %40, i32 0, i32 17
  %42 = load ptr, ptr %41, align 8, !tbaa !69
  %43 = icmp ne ptr %42, null
  br i1 %43, label %44, label %50

44:                                               ; preds = %39
  %45 = load ptr, ptr %5, align 8, !tbaa !3
  %46 = getelementptr inbounds nuw %struct.PJconsts, ptr %45, i32 0, i32 17
  %47 = load ptr, ptr %46, align 8, !tbaa !69
  %48 = load ptr, ptr %4, align 8, !tbaa !72
  %49 = load ptr, ptr %5, align 8, !tbaa !3
  call void %47(ptr noundef nonnull align 8 dereferenceable(32) %48, ptr noundef %49)
  br label %89

50:                                               ; preds = %39
  %51 = load ptr, ptr %5, align 8, !tbaa !3
  %52 = getelementptr inbounds nuw %struct.PJconsts, ptr %51, i32 0, i32 15
  %53 = load ptr, ptr %52, align 8, !tbaa !67
  %54 = icmp ne ptr %53, null
  br i1 %54, label %55, label %62

55:                                               ; preds = %50
  call void @llvm.lifetime.start.p0(i64 24, ptr %9) #6
  %56 = load ptr, ptr %5, align 8, !tbaa !3
  %57 = getelementptr inbounds nuw %struct.PJconsts, ptr %56, i32 0, i32 15
  %58 = load ptr, ptr %57, align 8, !tbaa !67
  %59 = load ptr, ptr %4, align 8, !tbaa !72
  call void @llvm.memcpy.p0.p0.i64(ptr align 8 %10, ptr align 8 %59, i64 24, i1 false), !tbaa.struct !68
  %60 = load ptr, ptr %5, align 8, !tbaa !3
  call void %58(ptr dead_on_unwind writable sret(%struct.PJ_XYZ) align 8 %9, ptr noundef byval(%struct.PJ_LPZ) align 8 %10, ptr noundef %60)
  %61 = load ptr, ptr %4, align 8, !tbaa !72
  call void @llvm.memcpy.p0.p0.i64(ptr align 8 %61, ptr align 8 %9, i64 24, i1 false), !tbaa.struct !68
  call void @llvm.lifetime.end.p0(i64 24, ptr %9) #6
  br label %88

62:                                               ; preds = %50
  %63 = load ptr, ptr %5, align 8, !tbaa !3
  %64 = getelementptr inbounds nuw %struct.PJconsts, ptr %63, i32 0, i32 13
  %65 = load ptr, ptr %64, align 8, !tbaa !66
  %66 = icmp ne ptr %65, null
  br i1 %66, label %67, label %83

67:                                               ; preds = %62
  call void @llvm.lifetime.start.p0(i64 16, ptr %11) #6
  %68 = load ptr, ptr %5, align 8, !tbaa !3
  %69 = getelementptr inbounds nuw %struct.PJconsts, ptr %68, i32 0, i32 13
  %70 = load ptr, ptr %69, align 8, !tbaa !66
  %71 = load ptr, ptr %4, align 8, !tbaa !72
  call void @llvm.memcpy.p0.p0.i64(ptr align 8 %12, ptr align 8 %71, i64 16, i1 false), !tbaa.struct !8
  %72 = load ptr, ptr %5, align 8, !tbaa !3
  %73 = getelementptr inbounds nuw { double, double }, ptr %12, i32 0, i32 0
  %74 = load double, ptr %73, align 8
  %75 = getelementptr inbounds nuw { double, double }, ptr %12, i32 0, i32 1
  %76 = load double, ptr %75, align 8
  %77 = call { double, double } %70(double %74, double %76, ptr noundef %72)
  %78 = getelementptr inbounds nuw { double, double }, ptr %11, i32 0, i32 0
  %79 = extractvalue { double, double } %77, 0
  store double %79, ptr %78, align 8
  %80 = getelementptr inbounds nuw { double, double }, ptr %11, i32 0, i32 1
  %81 = extractvalue { double, double } %77, 1
  store double %81, ptr %80, align 8
  %82 = load ptr, ptr %4, align 8, !tbaa !72
  call void @llvm.memcpy.p0.p0.i64(ptr align 8 %82, ptr align 8 %11, i64 16, i1 false), !tbaa.struct !8
  call void @llvm.lifetime.end.p0(i64 16, ptr %11) #6
  br label %87

83:                                               ; preds = %62
  %84 = load ptr, ptr %5, align 8, !tbaa !3
  %85 = call i32 @proj_errno_set(ptr noundef %84, i32 noundef 4098)
  call void @llvm.lifetime.start.p0(i64 32, ptr %13) #6
  call void @_Z16proj_coord_errorv(ptr dead_on_unwind writable sret(%union.PJ_COORD) align 8 %13)
  %86 = load ptr, ptr %4, align 8, !tbaa !72
  call void @llvm.memcpy.p0.p0.i64(ptr align 8 %86, ptr align 8 %13, i64 32, i1 false), !tbaa.struct !71
  call void @llvm.lifetime.end.p0(i64 32, ptr %13) #6
  store i1 false, ptr %3, align 1
  store i32 1, ptr %8, align 4
  br label %119

87:                                               ; preds = %67
  br label %88

88:                                               ; preds = %87, %55
  br label %89

89:                                               ; preds = %88, %44
  %90 = load ptr, ptr %4, align 8, !tbaa !72
  %91 = getelementptr inbounds [4 x double], ptr %90, i64 0, i64 0
  %92 = load double, ptr %91, align 8, !tbaa !65
  %93 = fcmp oeq double 0x7FF0000000000000, %92
  br i1 %93, label %94, label %96

94:                                               ; preds = %89
  call void @llvm.lifetime.start.p0(i64 32, ptr %14) #6
  call void @_Z16proj_coord_errorv(ptr dead_on_unwind writable sret(%union.PJ_COORD) align 8 %14)
  %95 = load ptr, ptr %4, align 8, !tbaa !72
  call void @llvm.memcpy.p0.p0.i64(ptr align 8 %95, ptr align 8 %14, i64 32, i1 false), !tbaa.struct !71
  call void @llvm.lifetime.end.p0(i64 32, ptr %14) #6
  store i1 false, ptr %3, align 1
  store i32 1, ptr %8, align 4
  br label %119

96:                                               ; preds = %89
  %97 = load ptr, ptr %5, align 8, !tbaa !3
  %98 = getelementptr inbounds nuw %struct.PJconsts, ptr %97, i32 0, i32 49
  %99 = load i32, ptr %98, align 8, !tbaa !70
  %100 = icmp ne i32 %99, 0
  br i1 %100, label %104, label %101

101:                                              ; preds = %96
  %102 = load ptr, ptr %5, align 8, !tbaa !3
  %103 = load ptr, ptr %4, align 8, !tbaa !72
  call void @_ZL12fwd_finalizeP8PJconstsR8PJ_COORD(ptr noundef %102, ptr noundef nonnull align 8 dereferenceable(32) %103)
  br label %104

104:                                              ; preds = %101, %96
  %105 = load ptr, ptr %5, align 8, !tbaa !3
  %106 = getelementptr inbounds nuw %struct.PJconsts, ptr %105, i32 0, i32 0
  %107 = load ptr, ptr %106, align 8, !tbaa !11
  %108 = getelementptr inbounds nuw %struct.pj_ctx, ptr %107, i32 0, i32 1
  %109 = load i32, ptr %108, align 8, !tbaa !39
  %110 = icmp ne i32 %109, 0
  br i1 %110, label %111, label %113

111:                                              ; preds = %104
  call void @llvm.lifetime.start.p0(i64 32, ptr %15) #6
  call void @_Z16proj_coord_errorv(ptr dead_on_unwind writable sret(%union.PJ_COORD) align 8 %15)
  %112 = load ptr, ptr %4, align 8, !tbaa !72
  call void @llvm.memcpy.p0.p0.i64(ptr align 8 %112, ptr align 8 %15, i64 32, i1 false), !tbaa.struct !71
  call void @llvm.lifetime.end.p0(i64 32, ptr %15) #6
  store i1 false, ptr %3, align 1
  store i32 1, ptr %8, align 4
  br label %119

113:                                              ; preds = %104
  %114 = load i32, ptr %6, align 4, !tbaa !63
  %115 = load ptr, ptr %5, align 8, !tbaa !3
  %116 = getelementptr inbounds nuw %struct.PJconsts, ptr %115, i32 0, i32 0
  %117 = load ptr, ptr %116, align 8, !tbaa !11
  %118 = getelementptr inbounds nuw %struct.pj_ctx, ptr %117, i32 0, i32 1
  store i32 %114, ptr %118, align 8, !tbaa !39
  store i1 true, ptr %3, align 1
  store i32 1, ptr %8, align 4
  br label %119

119:                                              ; preds = %113, %111, %94, %83, %37
  call void @llvm.lifetime.end.p0(i64 4, ptr %6) #6
  %120 = load i1, ptr %3, align 1
  ret i1 %120
}